target datalayout = "e-m:e-p270:32:32-p271:32:32-p272:64:64-i64:64-i128:128-f80:128-n8:16:32:64-S128"
target triple = "x86_64-pc-linux-gnu"

%class.ZStatValue = type { ptr, ptr, i32, i32 }
%class.ZStatSampler = type { %class.ZStatIterableValue, ptr }
%class.ZStatIterableValue = type { %class.ZStatValue, ptr }
%class.ZStatCounter = type { %class.ZStatIterableValue.1, %class.ZStatSampler }
%class.ZStatIterableValue.1 = type { %class.ZStatValue, ptr }
%class.ZStatPhase = type { ptr, %class.ZStatSampler }
%class.ZStatCriticalPhase = type <{ %class.ZStatPhase, %class.ZStatCounter, i8, [7 x i8] }>

@_ZTV10ZStatPhase = linkonce_odr hidden unnamed_addr constant { [4 x ptr] } { [4 x ptr] [ptr null, ptr null, ptr @__cxa_pure_virtual, ptr @__cxa_pure_virtual] }, comdat, align 8
@.str.30 = private unnamed_addr constant [9 x i8] c"Critical\00", align 1
@_ZN12ZStatSamplerC1EPKcS1_PFv15LogTargetHandleRKS_RK19ZStatSamplerHistoryE = hidden unnamed_addr alias void (ptr, ptr, ptr, ptr), ptr @_ZN12ZStatSamplerC2EPKcS1_PFv15LogTargetHandleRKS_RK19ZStatSamplerHistoryE
@_ZN12ZStatCounterC1EPKcS1_PFv15LogTargetHandleRK12ZStatSamplerRK19ZStatSamplerHistoryE = hidden unnamed_addr alias void (ptr, ptr, ptr, ptr), ptr @_ZN12ZStatCounterC2EPKcS1_PFv15LogTargetHandleRK12ZStatSamplerRK19ZStatSamplerHistoryE

; Function Attrs: mustprogress nounwind uwtable
define hidden void @_ZN10ZStatPhaseC2EPKcS1_(ptr noundef nonnull align 8 dereferenceable(48) %0, ptr noundef %1, ptr noundef %2) unnamed_addr #1 align 2 {
  %4 = alloca ptr, align 8
  %5 = alloca ptr, align 8
  %6 = alloca ptr, align 8
  store ptr %0, ptr %4, align 8
  store ptr %1, ptr %5, align 8
  store ptr %2, ptr %6, align 8
  %7 = load ptr, ptr %4, align 8
  store ptr getelementptr inbounds inrange(-16, 16) ({ [4 x ptr] }, ptr @_ZTV10ZStatPhase, i32 0, i32 0, i32 2), ptr %7, align 8
  %8 = getelementptr inbounds %class.ZStatPhase, ptr %7, i32 0, i32 1
  %9 = load ptr, ptr %5, align 8
  %10 = load ptr, ptr %6, align 8
  call void @_ZN12ZStatSamplerC1EPKcS1_PFv15LogTargetHandleRKS_RK19ZStatSamplerHistoryE(ptr noundef nonnull align 8 dereferenceable(40) %8, ptr noundef %9, ptr noundef %10, ptr noundef @_Z13ZStatUnitTime15LogTargetHandleRK12ZStatSamplerRK19ZStatSamplerHistory)
  ret void
}

; Function Attrs: mustprogress nounwind uwtable
define hidden void @_ZN18ZStatCriticalPhaseC2EPKcb(ptr noundef nonnull align 8 dereferenceable(121) %0, ptr noundef %1, i1 noundef zeroext %2) unnamed_addr #1 align 2 {
  %4 = alloca ptr, align 8
  %5 = alloca ptr, align 8
  %6 = alloca i8, align 1
  store ptr %0, ptr %4, align 8
  store ptr %1, ptr %5, align 8
  %7 = zext i1 %2 to i8
  store i8 %7, ptr %6, align 1
  %8 = load ptr, ptr %4, align 8
  %9 = load ptr, ptr %5, align 8
  call void @_ZN10ZStatPhaseC2EPKcS1_(ptr noundef nonnull align 8 dereferenceable(48) %8, ptr noundef @.str.30, ptr noundef %9)
  store ptr getelementptr inbounds inrange(-16, 16) ({ [4 x ptr] }, ptr @_ZTV18ZStatCriticalPhase, i32 0, i32 0, i32 2), ptr %8, align 8
  %10 = getelementptr inbounds %class.ZStatCriticalPhase, ptr %8, i32 0, i32 1
  %11 = load ptr, ptr %5, align 8
  call void @_ZN12ZStatCounterC1EPKcS1_PFv15LogTargetHandleRK12ZStatSamplerRK19ZStatSamplerHistoryE(ptr noundef nonnull align 8 dereferenceable(72) %10, ptr noundef @.str.30, ptr noundef %11, ptr noundef @_Z21ZStatUnitOpsPerSecond15LogTargetHandleRK12ZStatSamplerRK19ZStatSamplerHistory)
  %12 = getelementptr inbounds %class.ZStatCriticalPhase, ptr %8, i32 0, i32 2
  %13 = load i8, ptr %6, align 1
  %14 = trunc i8 %13 to i1
  %15 = zext i1 %14 to i8
  store i8 %15, ptr %12, align 8
  ret void
}