; Function Attrs: mustprogress nofree norecurse nosync nounwind willreturn memory(readwrite, argmem: write, inaccessiblemem: none) uwtable
define hidden void @_ZN18ZStatCriticalPhaseC2EPKcb(ptr noundef nonnull align 8 dereferenceable(121) %0, ptr noundef %1, i1 noundef zeroext %2) unnamed_addr #3 align 2 {
  %4 = zext i1 %2 to i8
  %5 = getelementptr inbounds i8, ptr %0, i64 8
  %6 = load i32, ptr @_ZN18ZStatIterableValueI12ZStatSamplerE6_countE, align 4
  %7 = add i32 %6, 1
  store ptr @.str.30, ptr %5, align 8
  %8 = getelementptr inbounds i8, ptr %0, i64 16
  store ptr %1, ptr %8, align 8
  %9 = getelementptr inbounds i8, ptr %0, i64 24
  store i32 %6, ptr %9, align 8
  %10 = getelementptr inbounds i8, ptr %0, i64 28
  %11 = load i32, ptr @_ZN10ZStatValue11_cpu_offsetE, align 4
  store i32 %11, ptr %10, align 4
  %12 = add i32 %11, 24
  %13 = getelementptr inbounds i8, ptr %0, i64 32
  %14 = load ptr, ptr @_ZN18ZStatIterableValueI12ZStatSamplerE6_firstE, align 8
  store ptr %14, ptr %13, align 8
  %15 = getelementptr inbounds i8, ptr %0, i64 40
  store ptr @_Z13ZStatUnitTime15LogTargetHandleRK12ZStatSamplerRK19ZStatSamplerHistory, ptr %15, align 8
  store ptr getelementptr inbounds inrange(-16, 16) (i8, ptr @_ZTV18ZStatCriticalPhase, i64 16), ptr %0, align 8
  %16 = getelementptr inbounds i8, ptr %0, i64 48
  %17 = load i32, ptr @_ZN18ZStatIterableValueI12ZStatCounterE6_countE, align 4
  %18 = add i32 %17, 1
  store i32 %18, ptr @_ZN18ZStatIterableValueI12ZStatCounterE6_countE, align 4
  store ptr @.str.30, ptr %16, align 8
  %19 = getelementptr inbounds i8, ptr %0, i64 56
  store ptr %1, ptr %19, align 8
  %20 = getelementptr inbounds i8, ptr %0, i64 64
  store i32 %17, ptr %20, align 8
  %21 = getelementptr inbounds i8, ptr %0, i64 68
  store i32 %12, ptr %21, align 4
  %22 = add i32 %11, 32
  %23 = getelementptr inbounds i8, ptr %0, i64 72
  %24 = load ptr, ptr @_ZN18ZStatIterableValueI12ZStatCounterE6_firstE, align 8
  store ptr %16, ptr @_ZN18ZStatIterableValueI12ZStatCounterE6_firstE, align 8
  store ptr %24, ptr %23, align 8
  %25 = getelementptr inbounds i8, ptr %0, i64 80
  %26 = add i32 %6, 2
  store i32 %26, ptr @_ZN18ZStatIterableValueI12ZStatSamplerE6_countE, align 4
  store ptr @.str.30, ptr %25, align 8
  %27 = getelementptr inbounds i8, ptr %0, i64 88
  store ptr %1, ptr %27, align 8
  %28 = getelementptr inbounds i8, ptr %0, i64 96
  store i32 %7, ptr %28, align 8
  %29 = getelementptr inbounds i8, ptr %0, i64 100
  store i32 %22, ptr %29, align 4
  %30 = add i32 %11, 56
  store i32 %30, ptr @_ZN10ZStatValue11_cpu_offsetE, align 4
  %31 = getelementptr inbounds i8, ptr %0, i64 104
  store ptr %25, ptr @_ZN18ZStatIterableValueI12ZStatSamplerE6_firstE, align 8
  store ptr %5, ptr %31, align 8
  %32 = getelementptr inbounds i8, ptr %0, i64 112
  store ptr @_Z21ZStatUnitOpsPerSecond15LogTargetHandleRK12ZStatSamplerRK19ZStatSamplerHistory, ptr %32, align 8
  %33 = getelementptr inbounds i8, ptr %0, i64 120
  store i8 %4, ptr %33, align 8
  ret void
}